target datalayout = "e-m:e-p270:32:32-p271:32:32-p272:64:64-i64:64-i128:128-f80:128-n8:16:32:64-S128"
target triple = "x86_64-pc-linux-gnu"

%struct.show_one_options = type { i32, i32, i32, i32 }
%struct.object_id = type { [32 x i8], i32 }

@the_repository = external global ptr, align 8
@.str.36 = private unnamed_addr constant [4 x i8] c"%s\0A\00", align 1
@.str.40 = private unnamed_addr constant [30 x i8] c"git show-ref: bad ref %s (%s)\00", align 1
@.str.41 = private unnamed_addr constant [7 x i8] c"%s %s\0A\00", align 1
@.str.42 = private unnamed_addr constant [10 x i8] c"%s %s^{}\0A\00", align 1

; Function Attrs: nounwind uwtable
define internal void @show_one(ptr noundef %0, ptr noundef %1, ptr noundef %2) #0 {
  %4 = alloca ptr, align 8
  %5 = alloca ptr, align 8
  %6 = alloca ptr, align 8
  %7 = alloca ptr, align 8
  %8 = alloca %struct.object_id, align 4
  %9 = alloca i32, align 4
  store ptr %0, ptr %4, align 8, !tbaa !33
  store ptr %1, ptr %5, align 8, !tbaa !11
  store ptr %2, ptr %6, align 8, !tbaa !62
  call void @llvm.lifetime.start.p0(i64 8, ptr %7) #10
  call void @llvm.lifetime.start.p0(i64 36, ptr %8) #10
  %10 = load ptr, ptr @the_repository, align 8, !tbaa !13
  %11 = load ptr, ptr %6, align 8, !tbaa !62
  %12 = call i32 @repo_has_object_file(ptr noundef %10, ptr noundef %11)
  %13 = icmp ne i32 %12, 0
  br i1 %13, label %18, label %14

14:                                               ; preds = %3
  %15 = load ptr, ptr %5, align 8, !tbaa !11
  %16 = load ptr, ptr %6, align 8, !tbaa !62
  %17 = call ptr @oid_to_hex(ptr noundef %16)
  call void (ptr, ...) @die(ptr noundef @.str.40, ptr noundef %15, ptr noundef %17) #11
  unreachable

18:                                               ; preds = %3
  %19 = load ptr, ptr %4, align 8, !tbaa !33
  %20 = getelementptr inbounds nuw %struct.show_one_options, ptr %19, i32 0, i32 0
  %21 = load i32, ptr %20, align 4, !tbaa !49
  %22 = icmp ne i32 %21, 0
  br i1 %22, label %23, label %24

23:                                               ; preds = %18
  store i32 1, ptr %9, align 4
  br label %63

24:                                               ; preds = %18
  %25 = load ptr, ptr @the_repository, align 8, !tbaa !13
  %26 = load ptr, ptr %6, align 8, !tbaa !62
  %27 = load ptr, ptr %4, align 8, !tbaa !33
  %28 = getelementptr inbounds nuw %struct.show_one_options, ptr %27, i32 0, i32 2
  %29 = load i32, ptr %28, align 4, !tbaa !66
  %30 = call ptr @repo_find_unique_abbrev(ptr noundef %25, ptr noundef %26, i32 noundef %29)
  store ptr %30, ptr %7, align 8, !tbaa !11
  %31 = load ptr, ptr %4, align 8, !tbaa !33
  %32 = getelementptr inbounds nuw %struct.show_one_options, ptr %31, i32 0, i32 1
  %33 = load i32, ptr %32, align 4, !tbaa !38
  %34 = icmp ne i32 %33, 0
  br i1 %34, label %35, label %38

35:                                               ; preds = %24
  %36 = load ptr, ptr %7, align 8, !tbaa !11
  %37 = call i32 (ptr, ...) @printf(ptr noundef @.str.36, ptr noundef %36)
  br label %42

38:                                               ; preds = %24
  %39 = load ptr, ptr %7, align 8, !tbaa !11
  %40 = load ptr, ptr %5, align 8, !tbaa !11
  %41 = call i32 (ptr, ...) @printf(ptr noundef @.str.41, ptr noundef %39, ptr noundef %40)
  br label %42

42:                                               ; preds = %38, %35
  %43 = load ptr, ptr %4, align 8, !tbaa !33
  %44 = getelementptr inbounds nuw %struct.show_one_options, ptr %43, i32 0, i32 3
  %45 = load i32, ptr %44, align 4, !tbaa !67
  %46 = icmp ne i32 %45, 0
  br i1 %46, label %48, label %47

47:                                               ; preds = %42
  store i32 1, ptr %9, align 4
  br label %63

48:                                               ; preds = %42
  %49 = load ptr, ptr @the_repository, align 8, !tbaa !13
  %50 = load ptr, ptr %6, align 8, !tbaa !62
  %51 = call i32 @peel_iterated_oid(ptr noundef %49, ptr noundef %50, ptr noundef %8)
  %52 = icmp ne i32 %51, 0
  br i1 %52, label %62, label %53

53:                                               ; preds = %48
  %54 = load ptr, ptr @the_repository, align 8, !tbaa !13
  %55 = load ptr, ptr %4, align 8, !tbaa !33
  %56 = getelementptr inbounds nuw %struct.show_one_options, ptr %55, i32 0, i32 2
  %57 = load i32, ptr %56, align 4, !tbaa !66
  %58 = call ptr @repo_find_unique_abbrev(ptr noundef %54, ptr noundef %8, i32 noundef %57)
  store ptr %58, ptr %7, align 8, !tbaa !11
  %59 = load ptr, ptr %7, align 8, !tbaa !11
  %60 = load ptr, ptr %5, align 8, !tbaa !11
  %61 = call i32 (ptr, ...) @printf(ptr noundef @.str.42, ptr noundef %59, ptr noundef %60)
  br label %62

62:                                               ; preds = %53, %48
  store i32 0, ptr %9, align 4
  br label %63

63:                                               ; preds = %62, %47, %23
  call void @llvm.lifetime.end.p0(i64 36, ptr %8) #10
  call void @llvm.lifetime.end.p0(i64 8, ptr %7) #10
  %64 = load i32, ptr %9, align 4
  switch i32 %64, label %66 [
    i32 0, label %65
    i32 1, label %65
  ]

65:                                               ; preds = %63, %63
  ret void

66:                                               ; preds = %63
  unreachable
}