; Function Attrs: nounwind uwtable
define internal fastcc void @show_one(ptr noundef readonly captures(none) %0, ptr noundef %1, ptr noundef %2) unnamed_addr #0 {
  %4 = alloca %struct.object_id, align 4
  call void @llvm.lifetime.start.p0(i64 36, ptr nonnull %4) #12
  %5 = load ptr, ptr @the_repository, align 8, !tbaa !21
  %6 = tail call i32 @repo_has_object_file(ptr noundef %5, ptr noundef %2) #12
  %.not = icmp eq i32 %6, 0
  br i1 %.not, label %7, label %9

7:                                                ; preds = %3
  %8 = tail call ptr @oid_to_hex(ptr noundef %2) #12
  tail call void (ptr, ...) @die(ptr noundef nonnull @.str.40, ptr noundef %1, ptr noundef %8) #14
  unreachable

9:                                                ; preds = %3
  %10 = load i32, ptr %0, align 4, !tbaa !33
  %.not15 = icmp eq i32 %10, 0
  br i1 %.not15, label %11, label %32

11:                                               ; preds = %9
  %12 = load ptr, ptr @the_repository, align 8, !tbaa !21
  %13 = getelementptr inbounds nuw i8, ptr %0, i64 8
  %14 = load i32, ptr %13, align 4, !tbaa !50
  %15 = tail call ptr @repo_find_unique_abbrev(ptr noundef %12, ptr noundef %2, i32 noundef %14) #12
  %16 = getelementptr inbounds nuw i8, ptr %0, i64 4
  %17 = load i32, ptr %16, align 4, !tbaa !49
  %.not16 = icmp eq i32 %17, 0
  br i1 %.not16, label %19, label %18

18:                                               ; preds = %11
  %puts = tail call i32 @puts(ptr nonnull dereferenceable(1) %15)
  br label %21

19:                                               ; preds = %11
  %20 = tail call i32 (ptr, ...) @printf(ptr noundef nonnull dereferenceable(1) @.str.41, ptr noundef %15, ptr noundef %1)
  br label %21

21:                                               ; preds = %19, %18
  %22 = getelementptr inbounds nuw i8, ptr %0, i64 12
  %23 = load i32, ptr %22, align 4, !tbaa !51
  %.not17 = icmp eq i32 %23, 0
  br i1 %.not17, label %32, label %24

24:                                               ; preds = %21
  %25 = load ptr, ptr @the_repository, align 8, !tbaa !21
  %26 = call i32 @peel_iterated_oid(ptr noundef %25, ptr noundef %2, ptr noundef nonnull %4) #12
  %.not18 = icmp eq i32 %26, 0
  br i1 %.not18, label %27, label %32

27:                                               ; preds = %24
  %28 = load ptr, ptr @the_repository, align 8, !tbaa !21
  %29 = load i32, ptr %13, align 4, !tbaa !50
  %30 = call ptr @repo_find_unique_abbrev(ptr noundef %28, ptr noundef nonnull %4, i32 noundef %29) #12
  %31 = call i32 (ptr, ...) @printf(ptr noundef nonnull dereferenceable(1) @.str.42, ptr noundef %30, ptr noundef %1)
  br label %32

32:                                               ; preds = %24, %27, %21, %9
  call void @llvm.lifetime.end.p0(i64 36, ptr nonnull %4) #12
  ret void
}